; Function Attrs: nounwind uwtable
define hidden i32 @lsarpc_dissect_bitmap_kerb_EncTypes(ptr noundef %0, i32 noundef %1, ptr noundef %2, ptr noundef %3, ptr noundef %4, ptr noundef %5, i32 noundef %6, i32 noundef %7) local_unnamed_addr #0 {
  %9 = alloca i32, align 4
  %10 = getelementptr inbounds nuw i8, ptr %4, i64 28
  %11 = load i32, ptr %10, align 4
  %.not = icmp ne i32 %11, 0
  %12 = and i32 %1, 3
  %.not14 = icmp eq i32 %12, 0
  %or.cond = or i1 %.not14, %.not
  %13 = and i32 %1, -4
  %14 = add i32 %13, 4
  %.0 = select i1 %or.cond, i32 %1, i32 %14
  %15 = load i8, ptr %5, align 1
  %16 = and i8 %15, 16
  %17 = zext nneg i8 %16 to i32
  %18 = shl nuw i32 %17, 27
  %19 = tail call ptr @proto_tree_add_item(ptr noundef %3, i32 noundef %6, ptr noundef %0, i32 noundef %.0, i32 noundef 4, i32 noundef %18) #5
  %20 = call i32 @dissect_ndr_uint32(ptr noundef %0, i32 noundef %.0, ptr noundef %2, ptr noundef %3, ptr noundef %4, ptr noundef nonnull %5, i32 noundef -1, ptr noundef nonnull %9) #5
  ret i32 %20
}